; Function Attrs: mustprogress uwtable
define void @_ZN7Imf_3_421addOriginalDataWindowERNS_6HeaderERKN9Imath_3_23BoxINS2_4Vec2IiEEEE(ptr noundef nonnull align 8 dereferenceable(49) %0, ptr noundef nonnull align 4 dereferenceable(16) %1) local_unnamed_addr #3 personality ptr @__gxx_personality_v0 {
  %3 = alloca %"class.Imf_3_4::TypedAttribute", align 8
  call void @llvm.lifetime.start.p0(i64 24, ptr nonnull %3) #11
  call void @_ZN7Imf_3_414TypedAttributeIN9Imath_3_23BoxINS1_4Vec2IiEEEEEC1ERKS5_(ptr noundef nonnull align 8 dereferenceable(24) %3, ptr noundef nonnull align 4 dereferenceable(16) %1)
  invoke void @_ZN7Imf_3_46Header6insertEPKcRKNS_9AttributeE(ptr noundef nonnull align 8 dereferenceable(49) %0, ptr noundef nonnull @.str, ptr noundef nonnull align 8 dereferenceable(8) %3)
          to label %4 unwind label %5

4:                                                ; preds = %2
  call void @_ZN7Imf_3_414TypedAttributeIN9Imath_3_23BoxINS1_4Vec2IiEEEEED1Ev(ptr noundef nonnull align 8 dereferenceable(24) %3) #11
  call void @llvm.lifetime.end.p0(i64 24, ptr nonnull %3) #11
  ret void

5:                                                ; preds = %2
  %6 = landingpad { ptr, i32 }
          cleanup
  call void @_ZN7Imf_3_414TypedAttributeIN9Imath_3_23BoxINS1_4Vec2IiEEEEED1Ev(ptr noundef nonnull align 8 dereferenceable(24) %3) #11
  call void @llvm.lifetime.end.p0(i64 24, ptr nonnull %3) #11
  resume { ptr, i32 } %6
}